; Function Attrs: mustprogress uwtable
define noundef i64 @_ZN4dmlc2io16RecordIOSplitter15SeekRecordBeginEPNS_6StreamE(ptr nonnull readnone align 8 captures(none) %0, ptr noundef %1) unnamed_addr #3 align 2 personality ptr @__gxx_personality_v0 {
  %3 = alloca i32, align 4
  %4 = alloca i32, align 4
  %5 = alloca %"class.dmlc::LogMessageFatal", align 1
  call void @llvm.lifetime.start.p0(i64 4, ptr nonnull %3) #12
  call void @llvm.lifetime.start.p0(i64 4, ptr nonnull %4) #12
  %6 = load ptr, ptr %1, align 8, !tbaa !3
  %7 = load ptr, ptr %6, align 8
  %8 = call noundef i64 %7(ptr noundef nonnull align 8 dereferenceable(8) %1, ptr noundef nonnull %3, i64 noundef 4)
  %9 = icmp eq i64 %8, 0
  br i1 %9, label %._crit_edge, label %.lr.ph

.lr.ph:                                           ; preds = %2, %29
  %.01217 = phi i64 [ %.1, %29 ], [ 0, %2 ]
  %10 = add i64 %.01217, 4
  %11 = load i32, ptr %3, align 4, !tbaa !6
  %12 = icmp eq i32 %11, -824761590
  br i1 %12, label %13, label %29

13:                                               ; preds = %.lr.ph
  %14 = load ptr, ptr %1, align 8, !tbaa !3
  %15 = load ptr, ptr %14, align 8
  %16 = call noundef i64 %15(ptr noundef nonnull align 8 dereferenceable(8) %1, ptr noundef nonnull %4, i64 noundef 4)
  %.not = icmp eq i64 %16, 0
  br i1 %.not, label %17, label %26

17:                                               ; preds = %13
  call void @llvm.lifetime.start.p0(i64 1, ptr nonnull %5) #12
  %18 = call noundef nonnull align 8 dereferenceable(376) ptr @_ZN4dmlc15LogMessageFatal8GetEntryEv(ptr noundef nonnull align 1 dereferenceable(1) %5)
  call void @_ZN4dmlc15LogMessageFatal5Entry4InitEPKci(ptr noundef nonnull align 8 dereferenceable(376) %18, ptr noundef nonnull @.str, i32 noundef 16)
  %19 = invoke noundef nonnull align 8 dereferenceable(376) ptr @_ZN4dmlc15LogMessageFatal8GetEntryEv(ptr noundef nonnull align 1 dereferenceable(1) %5)
          to label %_ZN4dmlc15LogMessageFatal6streamB5cxx11Ev.exit unwind label %23

_ZN4dmlc15LogMessageFatal6streamB5cxx11Ev.exit:   ; preds = %17
  %20 = invoke noundef nonnull align 8 dereferenceable(8) ptr @_ZSt16__ostream_insertIcSt11char_traitsIcEERSt13basic_ostreamIT_T0_ES6_PKS3_l(ptr noundef nonnull align 8 dereferenceable(8) %19, ptr noundef nonnull @.str.1, i64 noundef 48)
          to label %_ZStlsISt11char_traitsIcEERSt13basic_ostreamIcT_ES5_PKc.exit unwind label %23

_ZStlsISt11char_traitsIcEERSt13basic_ostreamIcT_ES5_PKc.exit: ; preds = %_ZN4dmlc15LogMessageFatal6streamB5cxx11Ev.exit
  %21 = invoke noundef nonnull align 8 dereferenceable(8) ptr @_ZSt16__ostream_insertIcSt11char_traitsIcEERSt13basic_ostreamIT_T0_ES6_PKS3_l(ptr noundef nonnull align 8 dereferenceable(8) %19, ptr noundef nonnull @.str.2, i64 noundef 2)
          to label %_ZStlsISt11char_traitsIcEERSt13basic_ostreamIcT_ES5_PKc.exit14 unwind label %23

_ZStlsISt11char_traitsIcEERSt13basic_ostreamIcT_ES5_PKc.exit14: ; preds = %_ZStlsISt11char_traitsIcEERSt13basic_ostreamIcT_ES5_PKc.exit
  %22 = invoke noundef nonnull align 8 dereferenceable(8) ptr @_ZSt16__ostream_insertIcSt11char_traitsIcEERSt13basic_ostreamIT_T0_ES6_PKS3_l(ptr noundef nonnull align 8 dereferenceable(8) %19, ptr noundef nonnull @.str.3, i64 noundef 24)
          to label %_ZStlsISt11char_traitsIcEERSt13basic_ostreamIcT_ES5_PKc.exit15 unwind label %23

_ZStlsISt11char_traitsIcEERSt13basic_ostreamIcT_ES5_PKc.exit15: ; preds = %_ZStlsISt11char_traitsIcEERSt13basic_ostreamIcT_ES5_PKc.exit14
  call void @_ZN4dmlc15LogMessageFatalD2Ev(ptr noundef nonnull align 1 dereferenceable(1) %5)
  call void @llvm.lifetime.end.p0(i64 1, ptr nonnull %5) #12
  br label %26

23:                                               ; preds = %_ZStlsISt11char_traitsIcEERSt13basic_ostreamIcT_ES5_PKc.exit14, %_ZStlsISt11char_traitsIcEERSt13basic_ostreamIcT_ES5_PKc.exit, %_ZN4dmlc15LogMessageFatal6streamB5cxx11Ev.exit, %17
  %24 = landingpad { ptr, i32 }
          cleanup
  invoke void @_ZN4dmlc15LogMessageFatalD2Ev(ptr noundef nonnull align 1 dereferenceable(1) %5)
          to label %25 unwind label %34

25:                                               ; preds = %23
  call void @llvm.lifetime.end.p0(i64 1, ptr nonnull %5) #12
  call void @llvm.lifetime.end.p0(i64 4, ptr nonnull %4) #12
  call void @llvm.lifetime.end.p0(i64 4, ptr nonnull %3) #12
  resume { ptr, i32 } %24

26:                                               ; preds = %_ZStlsISt11char_traitsIcEERSt13basic_ostreamIcT_ES5_PKc.exit15, %13
  %27 = add i64 %.01217, 8
  %28 = load i32, ptr %4, align 4, !tbaa !6
  %or.cond = icmp ult i32 %28, 1073741824
  br i1 %or.cond, label %._crit_edge, label %29

29:                                               ; preds = %26, %.lr.ph
  %.1 = phi i64 [ %27, %26 ], [ %10, %.lr.ph ]
  %30 = load ptr, ptr %1, align 8, !tbaa !3
  %31 = load ptr, ptr %30, align 8
  %32 = call noundef i64 %31(ptr noundef nonnull align 8 dereferenceable(8) %1, ptr noundef nonnull %3, i64 noundef 4)
  %33 = icmp eq i64 %32, 0
  br i1 %33, label %._crit_edge, label %.lr.ph, !llvm.loop !9

._crit_edge:                                      ; preds = %29, %26, %2
  %.012.lcssa = phi i64 [ 0, %2 ], [ %.01217, %26 ], [ %.1, %29 ]
  call void @llvm.lifetime.end.p0(i64 4, ptr nonnull %4) #12
  call void @llvm.lifetime.end.p0(i64 4, ptr nonnull %3) #12
  ret i64 %.012.lcssa

34:                                               ; preds = %23
  %35 = landingpad { ptr, i32 }
          catch ptr null
  %36 = extractvalue { ptr, i32 } %35, 0
  call void @__clang_call_terminate(ptr %36) #27
  unreachable
}